target datalayout = "e-m:e-p270:32:32-p271:32:32-p272:64:64-i64:64-i128:128-f80:128-n8:16:32:64-S128"
target triple = "x86_64-pc-linux-gnu"

%struct._object = type { %union.anon, ptr }
%union.anon = type { i64 }
%struct.anon = type { i32, i32 }
%struct._typeobject = type { %struct.PyVarObject, ptr, i64, i64, ptr, i64, ptr, ptr, ptr, ptr, ptr, ptr, ptr, ptr, ptr, ptr, ptr, ptr, ptr, i64, ptr, ptr, ptr, ptr, i64, ptr, ptr, ptr, ptr, ptr, ptr, ptr, ptr, ptr, i64, ptr, ptr, ptr, ptr, ptr, ptr, ptr, ptr, ptr, ptr, ptr, i32, ptr, ptr, i8, i16 }
%struct.PyVarObject = type { %struct._object, i64 }

@PyExc_TypeError = external global ptr, align 8
@.str.18 = private unnamed_addr constant [27 x i8] c"heap type expected, got %R\00", align 1
@.str.19 = private unnamed_addr constant [18 x i8] c"!PyType_IS_GC(tp)\00", align 1
@.str.20 = private unnamed_addr constant [34 x i8] c"../cpython/Modules/_testcapi/gc.c\00", align 1
@__PRETTY_FUNCTION__.without_gc = private unnamed_addr constant [45 x i8] c"PyObject *without_gc(PyObject *, PyObject *)\00", align 1

; Function Attrs: alwaysinline nounwind uwtable
define internal void @Py_INCREF(ptr noundef %0) #3 {
  %2 = alloca ptr, align 8
  %3 = alloca i32, align 4
  %4 = alloca i32, align 4
  store ptr %0, ptr %2, align 8, !tbaa !3
  call void @llvm.lifetime.start.p0(i64 4, ptr %3) #6
  %5 = load ptr, ptr %2, align 8, !tbaa !3
  %6 = getelementptr inbounds nuw %struct._object, ptr %5, i32 0, i32 0
  %7 = getelementptr inbounds nuw %struct.anon, ptr %6, i32 0, i32 0
  %8 = load i32, ptr %7, align 8, !tbaa !10
  store i32 %8, ptr %3, align 4, !tbaa !8
  %9 = load i32, ptr %3, align 4, !tbaa !8
  %10 = icmp slt i32 %9, 0
  br i1 %10, label %11, label %12

11:                                               ; preds = %1
  store i32 1, ptr %4, align 4
  br label %18

12:                                               ; preds = %1
  %13 = load i32, ptr %3, align 4, !tbaa !8
  %14 = add i32 %13, 1
  %15 = load ptr, ptr %2, align 8, !tbaa !3
  %16 = getelementptr inbounds nuw %struct._object, ptr %15, i32 0, i32 0
  %17 = getelementptr inbounds nuw %struct.anon, ptr %16, i32 0, i32 0
  store i32 %14, ptr %17, align 8, !tbaa !10
  store i32 0, ptr %4, align 4
  br label %18

18:                                               ; preds = %12, %11
  call void @llvm.lifetime.end.p0(i64 4, ptr %3) #6
  %19 = load i32, ptr %4, align 4
  switch i32 %19, label %21 [
    i32 0, label %20
    i32 1, label %20
  ]

20:                                               ; preds = %18, %18
  ret void

21:                                               ; preds = %18
  unreachable
}

; Function Attrs: inlinehint nounwind uwtable
define internal ptr @_Py_TYPE(ptr noundef %0) #4 {
  %2 = alloca ptr, align 8
  store ptr %0, ptr %2, align 8, !tbaa !3
  %3 = load ptr, ptr %2, align 8, !tbaa !3
  %4 = getelementptr inbounds nuw %struct._object, ptr %3, i32 0, i32 1
  %5 = load ptr, ptr %4, align 8, !tbaa !37
  ret ptr %5
}

; Function Attrs: inlinehint nounwind uwtable
define internal ptr @_Py_NewRef(ptr noundef %0) #4 {
  %2 = alloca ptr, align 8
  store ptr %0, ptr %2, align 8, !tbaa !3
  %3 = load ptr, ptr %2, align 8, !tbaa !3
  call void @Py_INCREF(ptr noundef %3)
  %4 = load ptr, ptr %2, align 8, !tbaa !3
  ret ptr %4
}

; Function Attrs: inlinehint nounwind uwtable
define internal i32 @PyType_HasFeature(ptr noundef %0, i64 noundef %1) #4 {
  %3 = alloca ptr, align 8
  %4 = alloca i64, align 8
  %5 = alloca i64, align 8
  store ptr %0, ptr %3, align 8, !tbaa !16
  store i64 %1, ptr %4, align 8, !tbaa !36
  call void @llvm.lifetime.start.p0(i64 8, ptr %5) #6
  %6 = load ptr, ptr %3, align 8, !tbaa !16
  %7 = getelementptr inbounds nuw %struct._typeobject, ptr %6, i32 0, i32 19
  %8 = load i64, ptr %7, align 8, !tbaa !18
  store i64 %8, ptr %5, align 8, !tbaa !36
  %9 = load i64, ptr %5, align 8, !tbaa !36
  %10 = load i64, ptr %4, align 8, !tbaa !36
  %11 = and i64 %9, %10
  %12 = icmp ne i64 %11, 0
  %13 = zext i1 %12 to i32
  call void @llvm.lifetime.end.p0(i64 8, ptr %5) #6
  ret i32 %13
}

; Function Attrs: inlinehint nounwind uwtable
define internal i32 @PyType_Check(ptr noundef %0) #4 {
  %2 = alloca ptr, align 8
  store ptr %0, ptr %2, align 8, !tbaa !3
  %3 = load ptr, ptr %2, align 8, !tbaa !3
  %4 = call ptr @_Py_TYPE(ptr noundef %3)
  %5 = call i32 @PyType_HasFeature(ptr noundef %4, i64 noundef 2147483648)
  ret i32 %5
}

; Function Attrs: nounwind uwtable
define internal ptr @without_gc(ptr noundef %0, ptr noundef %1) #0 {
  %3 = alloca ptr, align 8
  %4 = alloca ptr, align 8
  %5 = alloca ptr, align 8
  %6 = alloca ptr, align 8
  %7 = alloca i32, align 4
  store ptr %0, ptr %4, align 8, !tbaa !3
  store ptr %1, ptr %5, align 8, !tbaa !3
  call void @llvm.lifetime.start.p0(i64 8, ptr %6) #6
  %8 = load ptr, ptr %5, align 8, !tbaa !3
  store ptr %8, ptr %6, align 8, !tbaa !16
  %9 = load ptr, ptr %5, align 8, !tbaa !3
  %10 = call i32 @PyType_Check(ptr noundef %9)
  %11 = icmp ne i32 %10, 0
  br i1 %11, label %12, label %16

12:                                               ; preds = %2
  %13 = load ptr, ptr %6, align 8, !tbaa !16
  %14 = call i32 @PyType_HasFeature(ptr noundef %13, i64 noundef 512)
  %15 = icmp ne i32 %14, 0
  br i1 %15, label %20, label %16

16:                                               ; preds = %12, %2
  %17 = load ptr, ptr @PyExc_TypeError, align 8, !tbaa !3
  %18 = load ptr, ptr %5, align 8, !tbaa !3
  %19 = call ptr (ptr, ptr, ...) @PyErr_Format(ptr noundef %17, ptr noundef @.str.18, ptr noundef %18)
  store ptr %19, ptr %3, align 8
  store i32 1, ptr %7, align 4
  br label %45

20:                                               ; preds = %12
  %21 = load ptr, ptr %6, align 8, !tbaa !16
  %22 = call i32 @PyType_HasFeature(ptr noundef %21, i64 noundef 16384)
  %23 = icmp ne i32 %22, 0
  br i1 %23, label %24, label %35

24:                                               ; preds = %20
  %25 = load ptr, ptr %6, align 8, !tbaa !16
  %26 = getelementptr inbounds nuw %struct._typeobject, ptr %25, i32 0, i32 19
  %27 = load i64, ptr %26, align 8, !tbaa !18
  %28 = sub i64 %27, 16384
  store i64 %28, ptr %26, align 8, !tbaa !18
  %29 = load ptr, ptr %6, align 8, !tbaa !16
  %30 = getelementptr inbounds nuw %struct._typeobject, ptr %29, i32 0, i32 38
  store ptr @PyObject_Free, ptr %30, align 8, !tbaa !27
  %31 = load ptr, ptr %6, align 8, !tbaa !16
  %32 = getelementptr inbounds nuw %struct._typeobject, ptr %31, i32 0, i32 21
  store ptr null, ptr %32, align 8, !tbaa !28
  %33 = load ptr, ptr %6, align 8, !tbaa !16
  %34 = getelementptr inbounds nuw %struct._typeobject, ptr %33, i32 0, i32 22
  store ptr null, ptr %34, align 8, !tbaa !29
  br label %35

35:                                               ; preds = %24, %20
  %36 = load ptr, ptr %6, align 8, !tbaa !16
  %37 = call i32 @PyType_HasFeature(ptr noundef %36, i64 noundef 16384)
  %38 = icmp ne i32 %37, 0
  br i1 %38, label %40, label %39

39:                                               ; preds = %35
  br label %42

40:                                               ; preds = %35
  call void @__assert_fail(ptr noundef @.str.19, ptr noundef @.str.20, i32 noundef 79, ptr noundef @__PRETTY_FUNCTION__.without_gc) #7
  unreachable

41:                                               ; No predecessors!
  br label %42

42:                                               ; preds = %41, %39
  %43 = load ptr, ptr %5, align 8, !tbaa !3
  %44 = call ptr @_Py_NewRef(ptr noundef %43)
  store ptr %44, ptr %3, align 8
  store i32 1, ptr %7, align 4
  br label %45

45:                                               ; preds = %42, %16
  call void @llvm.lifetime.end.p0(i64 8, ptr %6) #6
  %46 = load ptr, ptr %3, align 8
  ret ptr %46
}