; Function Attrs: nounwind uwtable
define internal ptr @without_gc(ptr readnone captures(none) %0, ptr noundef %1) #0 {
  %3 = getelementptr i8, ptr %1, i64 8
  %.val17 = load ptr, ptr %3, align 8, !tbaa !14
  %4 = getelementptr i8, ptr %.val17, i64 168
  %.val17.val = load i64, ptr %4, align 8, !tbaa !17
  %5 = and i64 %.val17.val, 2147483648
  %.not18 = icmp eq i64 %5, 0
  br i1 %.not18, label %9, label %6

6:                                                ; preds = %2
  %7 = getelementptr i8, ptr %1, i64 168
  %.val = load i64, ptr %7, align 8, !tbaa !17
  %8 = and i64 %.val, 512
  %.not12 = icmp eq i64 %8, 0
  br i1 %.not12, label %9, label %12

9:                                                ; preds = %6, %2
  %10 = load ptr, ptr @PyExc_TypeError, align 8, !tbaa !6
  %11 = tail call ptr (ptr, ptr, ...) @PyErr_Format(ptr noundef %10, ptr noundef nonnull @.str.18, ptr noundef nonnull %1) #8
  br label %_Py_NewRef.exit

12:                                               ; preds = %6
  %13 = and i64 %.val, 16384
  %.not13 = icmp eq i64 %13, 0
  br i1 %.not13, label %18, label %14

14:                                               ; preds = %12
  %15 = add nsw i64 %.val, -16384
  store i64 %15, ptr %7, align 8, !tbaa !17
  %16 = getelementptr inbounds nuw i8, ptr %1, i64 320
  store ptr @PyObject_Free, ptr %16, align 8, !tbaa !26
  %17 = getelementptr inbounds nuw i8, ptr %1, i64 184
  tail call void @llvm.memset.p0.i64(ptr noundef nonnull align 8 dereferenceable(16) %17, i8 0, i64 16, i1 false)
  br label %18

18:                                               ; preds = %14, %12
  %.val16 = phi i64 [ %15, %14 ], [ %.val, %12 ]
  %19 = and i64 %.val16, 16384
  %.not14 = icmp eq i64 %19, 0
  br i1 %.not14, label %21, label %20

20:                                               ; preds = %18
  tail call void @__assert_fail(ptr noundef nonnull @.str.19, ptr noundef nonnull @.str.20, i32 noundef 79, ptr noundef nonnull @__PRETTY_FUNCTION__.without_gc) #9
  unreachable

21:                                               ; preds = %18
  %22 = load i32, ptr %1, align 8, !tbaa !3
  %23 = icmp slt i32 %22, 0
  br i1 %23, label %_Py_NewRef.exit, label %24

24:                                               ; preds = %21
  %25 = add nuw i32 %22, 1
  store i32 %25, ptr %1, align 8, !tbaa !3
  br label %_Py_NewRef.exit

_Py_NewRef.exit:                                  ; preds = %24, %21, %9
  %.0 = phi ptr [ %11, %9 ], [ %1, %21 ], [ %1, %24 ]
  ret ptr %.0
}